target datalayout = "e-m:e-p270:32:32-p271:32:32-p272:64:64-i64:64-i128:128-f80:128-n8:16:32:64-S128"
target triple = "x86_64-pc-linux-gnu"

%struct._generic_ARKInterp = type { ptr, ptr }
%struct._ARKInterpContent_Hermite = type { i32, ptr, ptr, ptr, ptr, double, double, double }

@.str = private unnamed_addr constant [38 x i8] c"arkode_interp (Hermite): degree = %d\0A\00", align 1
@.str.1 = private unnamed_addr constant [39 x i8] c"arkode_interp (Hermite): told = %.16g\0A\00", align 1
@.str.2 = private unnamed_addr constant [39 x i8] c"arkode_interp (Hermite): tnew = %.16g\0A\00", align 1
@.str.3 = private unnamed_addr constant [36 x i8] c"arkode_interp (Hermite): h = %.16g\0A\00", align 1

; Function Attrs: nounwind uwtable
define void @arkInterpPrintMem_Hermite(ptr noundef %0, ptr noundef %1) #0 {
  %3 = alloca ptr, align 8
  %4 = alloca ptr, align 8
  store ptr %0, ptr %3, align 8, !tbaa !8
  store ptr %1, ptr %4, align 8, !tbaa !21
  %5 = load ptr, ptr %3, align 8, !tbaa !8
  %6 = icmp ne ptr %5, null
  br i1 %6, label %7, label %36

7:                                                ; preds = %2
  %8 = load ptr, ptr %4, align 8, !tbaa !21
  %9 = load ptr, ptr %3, align 8, !tbaa !8
  %10 = getelementptr inbounds nuw %struct._generic_ARKInterp, ptr %9, i32 0, i32 0
  %11 = load ptr, ptr %10, align 8, !tbaa !35
  %12 = getelementptr inbounds nuw %struct._ARKInterpContent_Hermite, ptr %11, i32 0, i32 0
  %13 = load i32, ptr %12, align 8, !tbaa !41
  %14 = call i32 (ptr, ptr, ...) @fprintf(ptr noundef %8, ptr noundef @.str, i32 noundef %13) #7
  %15 = load ptr, ptr %4, align 8, !tbaa !21
  %16 = load ptr, ptr %3, align 8, !tbaa !8
  %17 = getelementptr inbounds nuw %struct._generic_ARKInterp, ptr %16, i32 0, i32 0
  %18 = load ptr, ptr %17, align 8, !tbaa !35
  %19 = getelementptr inbounds nuw %struct._ARKInterpContent_Hermite, ptr %18, i32 0, i32 5
  %20 = load double, ptr %19, align 8, !tbaa !50
  %21 = call i32 (ptr, ptr, ...) @fprintf(ptr noundef %15, ptr noundef @.str.1, double noundef %20) #7
  %22 = load ptr, ptr %4, align 8, !tbaa !21
  %23 = load ptr, ptr %3, align 8, !tbaa !8
  %24 = getelementptr inbounds nuw %struct._generic_ARKInterp, ptr %23, i32 0, i32 0
  %25 = load ptr, ptr %24, align 8, !tbaa !35
  %26 = getelementptr inbounds nuw %struct._ARKInterpContent_Hermite, ptr %25, i32 0, i32 6
  %27 = load double, ptr %26, align 8, !tbaa !51
  %28 = call i32 (ptr, ptr, ...) @fprintf(ptr noundef %22, ptr noundef @.str.2, double noundef %27) #7
  %29 = load ptr, ptr %4, align 8, !tbaa !21
  %30 = load ptr, ptr %3, align 8, !tbaa !8
  %31 = getelementptr inbounds nuw %struct._generic_ARKInterp, ptr %30, i32 0, i32 0
  %32 = load ptr, ptr %31, align 8, !tbaa !35
  %33 = getelementptr inbounds nuw %struct._ARKInterpContent_Hermite, ptr %32, i32 0, i32 7
  %34 = load double, ptr %33, align 8, !tbaa !52
  %35 = call i32 (ptr, ptr, ...) @fprintf(ptr noundef %29, ptr noundef @.str.3, double noundef %34) #7
  br label %36

36:                                               ; preds = %7, %2
  ret void
}