; Function Attrs: nofree nounwind uwtable
define void @arkInterpPrintMem_Hermite(ptr noundef readonly captures(address_is_null) %0, ptr noundef captures(none) %1) #5 {
  %.not = icmp eq ptr %0, null
  br i1 %.not, label %19, label %3

3:                                                ; preds = %2
  %4 = load ptr, ptr %0, align 8, !tbaa !17
  %5 = load i32, ptr %4, align 8, !tbaa !18
  %6 = tail call i32 (ptr, ptr, ...) @fprintf(ptr noundef %1, ptr noundef nonnull @.str, i32 noundef %5) #14
  %7 = load ptr, ptr %0, align 8, !tbaa !17
  %8 = getelementptr inbounds nuw i8, ptr %7, i64 40
  %9 = load double, ptr %8, align 8, !tbaa !33
  %10 = tail call i32 (ptr, ptr, ...) @fprintf(ptr noundef %1, ptr noundef nonnull @.str.1, double noundef %9) #14
  %11 = load ptr, ptr %0, align 8, !tbaa !17
  %12 = getelementptr inbounds nuw i8, ptr %11, i64 48
  %13 = load double, ptr %12, align 8, !tbaa !34
  %14 = tail call i32 (ptr, ptr, ...) @fprintf(ptr noundef %1, ptr noundef nonnull @.str.2, double noundef %13) #14
  %15 = load ptr, ptr %0, align 8, !tbaa !17
  %16 = getelementptr inbounds nuw i8, ptr %15, i64 56
  %17 = load double, ptr %16, align 8, !tbaa !35
  %18 = tail call i32 (ptr, ptr, ...) @fprintf(ptr noundef %1, ptr noundef nonnull @.str.3, double noundef %17) #14
  br label %19

19:                                               ; preds = %3, %2
  ret void
}